target datalayout = "e-m:e-p270:32:32-p271:32:32-p272:64:64-i64:64-i128:128-f80:128-n8:16:32:64-S128"
target triple = "x86_64-pc-linux-gnu"

; Function Attrs: mustprogress nounwind uwtable
define hidden noundef i64 @_ZN4LIEF5MachO7details20sign_extended_addendERKNS1_28dyld_chained_ptr_arm64e_bindE(ptr noundef nonnull align 8 dereferenceable(8) %0) #1 {
  %2 = alloca i64, align 8
  %3 = alloca ptr, align 8
  %4 = alloca i64, align 8
  %5 = alloca i32, align 4
  store ptr %0, ptr %3, align 8, !tbaa !17
  call void @llvm.lifetime.start.p0(i64 8, ptr %4) #19
  %6 = load ptr, ptr %3, align 8, !tbaa !17
  %7 = load i64, ptr %6, align 8
  %8 = lshr i64 %7, 32
  %9 = and i64 %8, 524287
  store i64 %9, ptr %4, align 8, !tbaa !13
  %10 = load i64, ptr %4, align 8, !tbaa !13
  %11 = and i64 %10, 262144
  %12 = icmp ugt i64 %11, 0
  br i1 %12, label %13, label %16

13:                                               ; preds = %1
  %14 = load i64, ptr %4, align 8, !tbaa !13
  %15 = or i64 %14, -262144
  store i64 %15, ptr %2, align 8
  store i32 1, ptr %5, align 4
  br label %18

16:                                               ; preds = %1
  %17 = load i64, ptr %4, align 8, !tbaa !13
  store i64 %17, ptr %2, align 8
  store i32 1, ptr %5, align 4
  br label %18

18:                                               ; preds = %16, %13
  call void @llvm.lifetime.end.p0(i64 8, ptr %4) #19
  %19 = load i64, ptr %2, align 8
  ret i64 %19
}

; Function Attrs: mustprogress nounwind uwtable
define hidden noundef i64 @_ZNK4LIEF5MachO7details23dyld_chained_ptr_arm64e20sign_extended_addendEv(ptr noundef nonnull align 8 dereferenceable(8) %0) #1 align 2 {
  %2 = alloca ptr, align 8
  store ptr %0, ptr %2, align 8, !tbaa !21
  %3 = load ptr, ptr %2, align 8
  %4 = call noundef i64 @_ZN4LIEF5MachO7details20sign_extended_addendERKNS1_28dyld_chained_ptr_arm64e_bindE(ptr noundef nonnull align 8 dereferenceable(8) %3)
  ret i64 %4
}