; Function Attrs: mustprogress nofree norecurse nosync nounwind willreturn memory(argmem: read) uwtable
define hidden noundef range(i64 -262144, 524288) i64 @_ZNK4LIEF5MachO7details23dyld_chained_ptr_arm64e20sign_extended_addendEv(ptr noundef nonnull readonly align 8 captures(none) dereferenceable(8) %0) local_unnamed_addr #1 align 2 {
  %2 = load i64, ptr %0, align 8
  %3 = lshr i64 %2, 32
  %4 = and i64 %2, 1125899906842624
  %.not.i = icmp eq i64 %4, 0
  %5 = and i64 %3, 262143
  %masksel.i = select i1 %.not.i, i64 0, i64 -262144
  %.0.i = or disjoint i64 %masksel.i, %5
  ret i64 %.0.i
}